; Function Attrs: mustprogress nounwind uwtable
define hidden void @_ZN5State15_sub_Op_ExpandVEPK4Node(ptr nocapture noundef nonnull align 8 dereferenceable(1920) %0, ptr noundef %1) local_unnamed_addr #2 align 2 {
  %3 = getelementptr inbounds i8, ptr %0, i64 1904
  %4 = load ptr, ptr %3, align 8
  %.not = icmp eq ptr %4, null
  br i1 %.not, label %.thread, label %5

5:                                                ; preds = %2
  %6 = getelementptr inbounds i8, ptr %4, i64 1488
  %7 = load i16, ptr %6, align 4
  %8 = and i16 %7, 1
  %.not11 = icmp eq i16 %8, 0
  br i1 %.not11, label %.thread26, label %9

9:                                                ; preds = %5
  %10 = getelementptr inbounds i8, ptr %0, i64 1912
  %11 = load ptr, ptr %10, align 8
  %.not12 = icmp eq ptr %11, null
  br i1 %.not12, label %.thread26, label %12

12:                                               ; preds = %9
  %13 = getelementptr inbounds i8, ptr %11, i64 1356
  %14 = load i16, ptr %13, align 4
  %15 = and i16 %14, 1
  %.not13 = icmp eq i16 %15, 0
  br i1 %.not13, label %.thread26, label %16

16:                                               ; preds = %12
  %17 = load i64, ptr @_ZN19Abstract_VM_Version9_featuresE, align 8
  %18 = and i64 %17, 8589934592
  %.not21 = icmp eq i64 %18, 0
  br i1 %.not21, label %19, label %22

19:                                               ; preds = %16
  %20 = tail call noundef i32 @_ZN7Matcher22vector_length_in_bytesEPK4Node(ptr noundef %1) #9
  %21 = icmp eq i32 %20, 64
  %.pr.pre = load ptr, ptr %3, align 8
  br i1 %21, label %._crit_edge, label %36

._crit_edge:                                      ; preds = %19
  %.pre23 = load ptr, ptr %10, align 8
  br label %22

22:                                               ; preds = %._crit_edge, %16
  %23 = phi ptr [ %.pre23, %._crit_edge ], [ %11, %16 ]
  %24 = phi ptr [ %.pr.pre, %._crit_edge ], [ %4, %16 ]
  %25 = getelementptr inbounds i8, ptr %24, i64 456
  %26 = load i32, ptr %25, align 8
  %27 = getelementptr inbounds i8, ptr %23, i64 192
  %28 = load i32, ptr %27, align 8
  %29 = add i32 %28, %26
  %30 = add i32 %29, 100
  %31 = getelementptr inbounds i8, ptr %0, i64 456
  store i32 %30, ptr %31, align 8
  %32 = getelementptr inbounds i8, ptr %0, i64 1488
  store i16 3089, ptr %32, align 8
  %33 = add i32 %29, 200
  %34 = getelementptr inbounds i8, ptr %0, i64 460
  store i32 %33, ptr %34, align 4
  %35 = getelementptr inbounds i8, ptr %0, i64 1490
  store i16 731, ptr %35, align 2
  br label %.thread26

36:                                               ; preds = %19
  %.not14 = icmp eq ptr %.pr.pre, null
  br i1 %.not14, label %.thread, label %.thread26

.thread26:                                        ; preds = %5, %9, %12, %22, %36
  %.pr29 = phi ptr [ %.pr.pre, %36 ], [ %4, %5 ], [ %4, %9 ], [ %4, %12 ], [ %24, %22 ]
  %37 = getelementptr inbounds i8, ptr %.pr29, i64 1488
  %38 = load i16, ptr %37, align 4
  %39 = and i16 %38, 1
  %.not15 = icmp eq i16 %39, 0
  br i1 %.not15, label %.thread, label %40

40:                                               ; preds = %.thread26
  %41 = getelementptr inbounds i8, ptr %0, i64 1912
  %42 = load ptr, ptr %41, align 8
  %.not16 = icmp eq ptr %42, null
  br i1 %.not16, label %.thread, label %43

43:                                               ; preds = %40
  %44 = getelementptr inbounds i8, ptr %42, i64 1488
  %45 = load i16, ptr %44, align 4
  %46 = and i16 %45, 1
  %.not17 = icmp eq i16 %46, 0
  br i1 %.not17, label %.thread, label %47

47:                                               ; preds = %43
  %48 = load i64, ptr @_ZN19Abstract_VM_Version9_featuresE, align 8
  %49 = and i64 %48, 8589934592
  %.not22 = icmp eq i64 %49, 0
  br i1 %.not22, label %50, label %.thread

50:                                               ; preds = %47
  %51 = tail call noundef i32 @_ZN7Matcher22vector_length_in_bytesEPK4Node(ptr noundef %1) #9
  %52 = icmp ult i32 %51, 33
  br i1 %52, label %53, label %.thread

53:                                               ; preds = %50
  %54 = load ptr, ptr %3, align 8
  %55 = getelementptr inbounds i8, ptr %54, i64 456
  %56 = load i32, ptr %55, align 8
  %57 = load ptr, ptr %41, align 8
  %58 = getelementptr inbounds i8, ptr %57, i64 456
  %59 = load i32, ptr %58, align 8
  %60 = add i32 %59, %56
  %61 = add i32 %60, 100
  %62 = getelementptr inbounds i8, ptr %0, i64 1488
  %63 = load i16, ptr %62, align 8
  %64 = and i16 %63, 1
  %65 = icmp eq i16 %64, 0
  %66 = getelementptr inbounds i8, ptr %0, i64 456
  %67 = load i32, ptr %66, align 8
  %68 = icmp ugt i32 %67, %61
  %or.cond = select i1 %65, i1 true, i1 %68
  br i1 %or.cond, label %69, label %70

69:                                               ; preds = %53
  store i32 %61, ptr %66, align 8
  store i16 3085, ptr %62, align 8
  br label %70

70:                                               ; preds = %53, %69
  %71 = getelementptr inbounds i8, ptr %0, i64 1490
  %72 = load i16, ptr %71, align 2
  %73 = and i16 %72, 1
  %74 = icmp eq i16 %73, 0
  br i1 %74, label %._crit_edge25, label %75

._crit_edge25:                                    ; preds = %70
  %.pre = add i32 %60, 200
  br label %80

75:                                               ; preds = %70
  %76 = getelementptr inbounds i8, ptr %0, i64 460
  %77 = load i32, ptr %76, align 4
  %78 = add i32 %60, 200
  %79 = icmp ugt i32 %77, %78
  br i1 %79, label %80, label %.thread

80:                                               ; preds = %._crit_edge25, %75
  %.pre-phi = phi i32 [ %.pre, %._crit_edge25 ], [ %78, %75 ]
  %81 = getelementptr inbounds i8, ptr %0, i64 460
  store i32 %.pre-phi, ptr %81, align 4
  store i16 731, ptr %71, align 2
  br label %.thread

.thread:                                          ; preds = %2, %75, %80, %50, %47, %43, %40, %.thread26, %36
  ret void
}